target datalayout = "e-m:e-p270:32:32-p271:32:32-p272:64:64-i64:64-i128:128-f80:128-n8:16:32:64-S128"
target triple = "x86_64-pc-linux-gnu"

%struct.TT_Post_NamesRec_ = type { i8, i16, i16, ptr, ptr }
%struct.FT_StreamRec_ = type { ptr, i64, i64, %union.FT_StreamDesc_, %union.FT_StreamDesc_, ptr, ptr, ptr, ptr, ptr }
%union.FT_StreamDesc_ = type { i64 }

; Function Attrs: nounwind uwtable
define internal i32 @load_format_25(ptr noundef %0, ptr noundef %1, i16 noundef zeroext %2, i64 noundef %3) #0 {
  %5 = alloca i32, align 4
  %6 = alloca ptr, align 8
  %7 = alloca ptr, align 8
  %8 = alloca i16, align 2
  %9 = alloca i64, align 8
  %10 = alloca ptr, align 8
  %11 = alloca i32, align 4
  %12 = alloca i16, align 2
  %13 = alloca ptr, align 8
  %14 = alloca ptr, align 8
  %15 = alloca i32, align 4
  store ptr %0, ptr %6, align 8
  store ptr %1, ptr %7, align 8
  store i16 %2, ptr %8, align 2
  store i64 %3, ptr %9, align 8
  %16 = load ptr, ptr %7, align 8
  %17 = getelementptr inbounds %struct.FT_StreamRec_, ptr %16, i32 0, i32 7
  %18 = load ptr, ptr %17, align 8
  store ptr %18, ptr %10, align 8
  store ptr null, ptr %13, align 8
  %19 = load i16, ptr %8, align 2
  %20 = zext i16 %19 to i64
  %21 = load i64, ptr %9, align 8
  %22 = icmp ugt i64 %20, %21
  br i1 %22, label %27, label %23

23:                                               ; preds = %4
  %24 = load i16, ptr %8, align 2
  %25 = zext i16 %24 to i32
  %26 = icmp sgt i32 %25, 386
  br i1 %26, label %27, label %28

27:                                               ; preds = %23, %4
  store i32 3, ptr %11, align 4
  br label %89

28:                                               ; preds = %23
  %29 = load ptr, ptr %10, align 8
  %30 = load i16, ptr %8, align 2
  %31 = zext i16 %30 to i64
  %32 = call ptr @ft_mem_qrealloc(ptr noundef %29, i64 noundef 2, i64 noundef 0, i64 noundef %31, ptr noundef null, ptr noundef %11)
  store ptr %32, ptr %13, align 8
  %33 = load i32, ptr %11, align 4
  %34 = icmp ne i32 %33, 0
  br i1 %34, label %41, label %35

35:                                               ; preds = %28
  %36 = load ptr, ptr %7, align 8
  %37 = load i16, ptr %8, align 2
  %38 = zext i16 %37 to i64
  %39 = call i32 @FT_Stream_EnterFrame(ptr noundef %36, i64 noundef %38)
  store i32 %39, ptr %11, align 4
  %40 = icmp ne i32 %39, 0
  br i1 %40, label %41, label %42

41:                                               ; preds = %35, %28
  br label %84

42:                                               ; preds = %35
  %43 = load ptr, ptr %7, align 8
  %44 = getelementptr inbounds %struct.FT_StreamRec_, ptr %43, i32 0, i32 8
  %45 = load ptr, ptr %44, align 8
  store ptr %45, ptr %14, align 8
  store i16 0, ptr %12, align 2
  br label %46

46:                                               ; preds = %73, %42
  %47 = load i16, ptr %12, align 2
  %48 = zext i16 %47 to i32
  %49 = load i16, ptr %8, align 2
  %50 = zext i16 %49 to i32
  %51 = icmp slt i32 %48, %50
  br i1 %51, label %52, label %76

52:                                               ; preds = %46
  %53 = load i16, ptr %12, align 2
  %54 = zext i16 %53 to i32
  %55 = load ptr, ptr %14, align 8
  %56 = getelementptr inbounds i8, ptr %55, i32 1
  store ptr %56, ptr %14, align 8
  %57 = load i8, ptr %55, align 1
  %58 = sext i8 %57 to i32
  %59 = add nsw i32 %54, %58
  store i32 %59, ptr %15, align 4
  %60 = load i32, ptr %15, align 4
  %61 = icmp slt i32 %60, 0
  br i1 %61, label %65, label %62

62:                                               ; preds = %52
  %63 = load i32, ptr %15, align 4
  %64 = icmp sgt i32 %63, 257
  br i1 %64, label %65, label %66

65:                                               ; preds = %62, %52
  store i32 0, ptr %15, align 4
  br label %66

66:                                               ; preds = %65, %62
  %67 = load i32, ptr %15, align 4
  %68 = trunc i32 %67 to i16
  %69 = load ptr, ptr %13, align 8
  %70 = load i16, ptr %12, align 2
  %71 = zext i16 %70 to i64
  %72 = getelementptr inbounds i16, ptr %69, i64 %71
  store i16 %68, ptr %72, align 2
  br label %73

73:                                               ; preds = %66
  %74 = load i16, ptr %12, align 2
  %75 = add i16 %74, 1
  store i16 %75, ptr %12, align 2
  br label %46, !llvm.loop !115

76:                                               ; preds = %46
  %77 = load ptr, ptr %7, align 8
  call void @FT_Stream_ExitFrame(ptr noundef %77)
  %78 = load i16, ptr %8, align 2
  %79 = load ptr, ptr %6, align 8
  %80 = getelementptr inbounds %struct.TT_Post_NamesRec_, ptr %79, i32 0, i32 1
  store i16 %78, ptr %80, align 2
  %81 = load ptr, ptr %13, align 8
  %82 = load ptr, ptr %6, align 8
  %83 = getelementptr inbounds %struct.TT_Post_NamesRec_, ptr %82, i32 0, i32 3
  store ptr %81, ptr %83, align 8
  store i32 0, ptr %5, align 4
  br label %91

84:                                               ; preds = %41
  br label %85

85:                                               ; preds = %84
  %86 = load ptr, ptr %10, align 8
  %87 = load ptr, ptr %13, align 8
  call void @ft_mem_free(ptr noundef %86, ptr noundef %87)
  store ptr null, ptr %13, align 8
  br label %88

88:                                               ; preds = %85
  br label %89

89:                                               ; preds = %88, %27
  %90 = load i32, ptr %11, align 4
  store i32 %90, ptr %5, align 4
  br label %91

91:                                               ; preds = %89, %76
  %92 = load i32, ptr %5, align 4
  ret i32 %92
}