; Function Attrs: nounwind uwtable
define internal fastcc i32 @load_format_25(ptr nocapture noundef writeonly %0, ptr noundef %1, i16 noundef zeroext %2, i64 noundef %3) unnamed_addr #0 {
  %5 = alloca i32, align 4
  %6 = getelementptr inbounds i8, ptr %1, i64 56
  %7 = load ptr, ptr %6, align 8
  %8 = zext i16 %2 to i64
  %9 = icmp ugt i64 %8, %3
  %10 = icmp ugt i16 %2, 386
  %or.cond = or i1 %10, %9
  br i1 %or.cond, label %30, label %11

11:                                               ; preds = %4
  %12 = call ptr @ft_mem_qrealloc(ptr noundef %7, i64 noundef 2, i64 noundef 0, i64 noundef %8, ptr noundef null, ptr noundef nonnull %5) #26
  %13 = load i32, ptr %5, align 4
  %.not = icmp eq i32 %13, 0
  br i1 %.not, label %14, label %29

14:                                               ; preds = %11
  %15 = call i32 @FT_Stream_EnterFrame(ptr noundef nonnull %1, i64 noundef %8) #26
  store i32 %15, ptr %5, align 4
  %.not35 = icmp eq i32 %15, 0
  br i1 %.not35, label %16, label %29

16:                                               ; preds = %14
  %.not38 = icmp eq i16 %2, 0
  br i1 %.not38, label %._crit_edge, label %.lr.ph.preheader

.lr.ph.preheader:                                 ; preds = %16
  %17 = getelementptr inbounds i8, ptr %1, i64 64
  %18 = load ptr, ptr %17, align 8
  br label %.lr.ph

.lr.ph:                                           ; preds = %.lr.ph.preheader, %.lr.ph
  %indvars.iv = phi i64 [ 0, %.lr.ph.preheader ], [ %indvars.iv.next, %.lr.ph ]
  %.03037 = phi ptr [ %18, %.lr.ph.preheader ], [ %20, %.lr.ph ]
  %19 = trunc nuw i64 %indvars.iv to i32
  %20 = getelementptr inbounds i8, ptr %.03037, i64 1
  %21 = load i8, ptr %.03037, align 1
  %22 = sext i8 %21 to i32
  %23 = add nsw i32 %22, %19
  %or.cond4 = icmp ugt i32 %23, 257
  %24 = trunc nsw i32 %23 to i16
  %25 = select i1 %or.cond4, i16 0, i16 %24
  %26 = getelementptr inbounds i16, ptr %12, i64 %indvars.iv
  store i16 %25, ptr %26, align 2
  %indvars.iv.next = add nuw nsw i64 %indvars.iv, 1
  %exitcond.not = icmp eq i64 %indvars.iv.next, %8
  br i1 %exitcond.not, label %._crit_edge, label %.lr.ph, !llvm.loop !137

._crit_edge:                                      ; preds = %.lr.ph, %16
  call void @FT_Stream_ExitFrame(ptr noundef %1) #26
  %27 = getelementptr inbounds i8, ptr %0, i64 2
  store i16 %2, ptr %27, align 2
  %28 = getelementptr inbounds i8, ptr %0, i64 8
  store ptr %12, ptr %28, align 8
  br label %30

29:                                               ; preds = %14, %11
  call void @ft_mem_free(ptr noundef %7, ptr noundef %12) #26
  %.pre = load i32, ptr %5, align 4
  br label %30

30:                                               ; preds = %4, %29, %._crit_edge
  %.0 = phi i32 [ 0, %._crit_edge ], [ %.pre, %29 ], [ 3, %4 ]
  ret i32 %.0
}